target datalayout = "e-m:e-p270:32:32-p271:32:32-p272:64:64-i64:64-i128:128-f80:128-n8:16:32:64-S128"
target triple = "x86_64-pc-linux-gnu"

%struct.zsetopval = type { i32, [32 x i8], ptr, ptr, i32, i64, double }

; Function Attrs: nounwind uwtable
define dso_local ptr @zuiNewSdsFromValue(ptr noundef %0) #0 {
  %2 = alloca ptr, align 8
  %3 = alloca ptr, align 8
  %4 = alloca ptr, align 8
  store ptr %0, ptr %3, align 8, !tbaa !45
  %5 = load ptr, ptr %3, align 8, !tbaa !45
  %6 = getelementptr inbounds nuw %struct.zsetopval, ptr %5, i32 0, i32 0
  %7 = load i32, ptr %6, align 8, !tbaa !179
  %8 = and i32 %7, 1
  %9 = icmp ne i32 %8, 0
  br i1 %9, label %10, label %21

10:                                               ; preds = %1
  call void @llvm.lifetime.start.p0(i64 8, ptr %4) #12
  %11 = load ptr, ptr %3, align 8, !tbaa !45
  %12 = getelementptr inbounds nuw %struct.zsetopval, ptr %11, i32 0, i32 2
  %13 = load ptr, ptr %12, align 8, !tbaa !181
  store ptr %13, ptr %4, align 8, !tbaa !11
  %14 = load ptr, ptr %3, align 8, !tbaa !45
  %15 = getelementptr inbounds nuw %struct.zsetopval, ptr %14, i32 0, i32 0
  %16 = load i32, ptr %15, align 8, !tbaa !179
  %17 = and i32 %16, -2
  store i32 %17, ptr %15, align 8, !tbaa !179
  %18 = load ptr, ptr %3, align 8, !tbaa !45
  %19 = getelementptr inbounds nuw %struct.zsetopval, ptr %18, i32 0, i32 2
  store ptr null, ptr %19, align 8, !tbaa !181
  %20 = load ptr, ptr %4, align 8, !tbaa !11
  store ptr %20, ptr %2, align 8
  call void @llvm.lifetime.end.p0(i64 8, ptr %4) #12
  br label %50

21:                                               ; preds = %1
  %22 = load ptr, ptr %3, align 8, !tbaa !45
  %23 = getelementptr inbounds nuw %struct.zsetopval, ptr %22, i32 0, i32 2
  %24 = load ptr, ptr %23, align 8, !tbaa !181
  %25 = icmp ne ptr %24, null
  br i1 %25, label %26, label %31

26:                                               ; preds = %21
  %27 = load ptr, ptr %3, align 8, !tbaa !45
  %28 = getelementptr inbounds nuw %struct.zsetopval, ptr %27, i32 0, i32 2
  %29 = load ptr, ptr %28, align 8, !tbaa !181
  %30 = call ptr @sdsdup(ptr noundef %29)
  store ptr %30, ptr %2, align 8
  br label %50

31:                                               ; preds = %21
  %32 = load ptr, ptr %3, align 8, !tbaa !45
  %33 = getelementptr inbounds nuw %struct.zsetopval, ptr %32, i32 0, i32 3
  %34 = load ptr, ptr %33, align 8, !tbaa !184
  %35 = icmp ne ptr %34, null
  br i1 %35, label %36, label %45

36:                                               ; preds = %31
  %37 = load ptr, ptr %3, align 8, !tbaa !45
  %38 = getelementptr inbounds nuw %struct.zsetopval, ptr %37, i32 0, i32 3
  %39 = load ptr, ptr %38, align 8, !tbaa !184
  %40 = load ptr, ptr %3, align 8, !tbaa !45
  %41 = getelementptr inbounds nuw %struct.zsetopval, ptr %40, i32 0, i32 4
  %42 = load i32, ptr %41, align 8, !tbaa !185
  %43 = zext i32 %42 to i64
  %44 = call ptr @sdsnewlen(ptr noundef %39, i64 noundef %43)
  store ptr %44, ptr %2, align 8
  br label %50

45:                                               ; preds = %31
  %46 = load ptr, ptr %3, align 8, !tbaa !45
  %47 = getelementptr inbounds nuw %struct.zsetopval, ptr %46, i32 0, i32 5
  %48 = load i64, ptr %47, align 8, !tbaa !182
  %49 = call ptr @sdsfromlonglong(i64 noundef %48)
  store ptr %49, ptr %2, align 8
  br label %50

50:                                               ; preds = %45, %36, %26, %10
  %51 = load ptr, ptr %2, align 8
  ret ptr %51
}