; Function Attrs: nounwind uwtable
define dso_local ptr @zuiNewSdsFromValue(ptr noundef captures(none) %0) local_unnamed_addr #0 {
  %2 = load i32, ptr %0, align 8, !tbaa !161
  %3 = and i32 %2, 1
  %.not = icmp eq i32 %3, 0
  %4 = getelementptr inbounds nuw i8, ptr %0, i64 40
  %5 = load ptr, ptr %4, align 8, !tbaa !163
  br i1 %.not, label %8, label %6

6:                                                ; preds = %1
  %7 = and i32 %2, -2
  store i32 %7, ptr %0, align 8, !tbaa !161
  store ptr null, ptr %4, align 8, !tbaa !163
  br label %23

8:                                                ; preds = %1
  %.not14 = icmp eq ptr %5, null
  br i1 %.not14, label %11, label %9

9:                                                ; preds = %8
  %10 = tail call ptr @sdsdup(ptr noundef nonnull %5) #18
  br label %23

11:                                               ; preds = %8
  %12 = getelementptr inbounds nuw i8, ptr %0, i64 48
  %13 = load ptr, ptr %12, align 8, !tbaa !166
  %.not15 = icmp eq ptr %13, null
  br i1 %.not15, label %19, label %14

14:                                               ; preds = %11
  %15 = getelementptr inbounds nuw i8, ptr %0, i64 56
  %16 = load i32, ptr %15, align 8, !tbaa !167
  %17 = zext i32 %16 to i64
  %18 = tail call ptr @sdsnewlen(ptr noundef nonnull %13, i64 noundef %17) #18
  br label %23

19:                                               ; preds = %11
  %20 = getelementptr inbounds nuw i8, ptr %0, i64 64
  %21 = load i64, ptr %20, align 8, !tbaa !164
  %22 = tail call ptr @sdsfromlonglong(i64 noundef %21) #18
  br label %23

23:                                               ; preds = %19, %14, %9, %6
  %.0 = phi ptr [ %5, %6 ], [ %10, %9 ], [ %18, %14 ], [ %22, %19 ]
  ret ptr %.0
}